target datalayout = "e-m:e-p270:32:32-p271:32:32-p272:64:64-i64:64-i128:128-f80:128-n8:16:32:64-S128"
target triple = "x86_64-pc-linux-gnu"

%struct._lv_global_t = type { i8, i8, %struct.lv_ll_t, ptr, ptr, %struct.lv_ll_t, i8, i32, i32, ptr, %struct.lv_ll_t, ptr, %struct.lv_ll_t, ptr, ptr, i32, ptr, i8, i32, i32, ptr, i32, %struct.lv_timer_state_t, %struct.lv_anim_state_t, %struct.lv_tick_state_t, %struct._lv_draw_buf_handlers_t, %struct._lv_draw_buf_handlers_t, %struct._lv_draw_buf_handlers_t, %struct.lv_ll_t, ptr, ptr, %struct.lv_draw_global_info_t, [4 x %struct.lv_draw_sw_mask_radius_circle_dsc_t], ptr, ptr, ptr, %struct.lv_tlsf_state_t, %struct.lv_ll_t, ptr, ptr, %struct.lv_style_t, i64, ptr, i32, ptr }
%struct.lv_timer_state_t = type { %struct.lv_ll_t, i8, i8, i8, i8, i32, i8, i32, i32, i32, i32, ptr, ptr }
%struct.lv_anim_state_t = type { i8, i8, ptr, %struct.lv_ll_t }
%struct.lv_tick_state_t = type { i32, i8, ptr, ptr }
%struct._lv_draw_buf_handlers_t = type { ptr, ptr, ptr, ptr, ptr, ptr }
%struct.lv_draw_global_info_t = type { ptr, i32, i32, i32, i32, i8 }
%struct.lv_draw_sw_mask_radius_circle_dsc_t = type { ptr, ptr, ptr, ptr, i32, i32, i32 }
%struct.lv_tlsf_state_t = type { ptr, i64, i64, %struct.lv_ll_t }
%struct.lv_ll_t = type { i32, ptr, ptr }
%struct.lv_style_t = type { ptr, i32, i8 }
%struct._lv_draw_buf_t = type { %struct.lv_image_header_t, i32, ptr, ptr, ptr }
%struct.lv_image_header_t = type <{ i64, i32 }>

@lv_global = external global %struct._lv_global_t, align 8

; Function Attrs: nounwind uwtable
define ptr @lv_draw_buf_dup_ex(ptr noundef %0, ptr noundef %1) #0 {
  %3 = alloca ptr, align 8
  %4 = alloca ptr, align 8
  %5 = alloca ptr, align 8
  %6 = alloca ptr, align 8
  %7 = alloca ptr, align 8
  %8 = alloca i32, align 4
  %9 = alloca i32, align 4
  store ptr %0, ptr %4, align 8, !tbaa !3
  store ptr %1, ptr %5, align 8, !tbaa !22
  call void @llvm.lifetime.start.p0(i64 8, ptr %6) #5
  %10 = load ptr, ptr %5, align 8, !tbaa !22
  %11 = getelementptr inbounds nuw %struct._lv_draw_buf_t, ptr %10, i32 0, i32 0
  store ptr %11, ptr %6, align 8, !tbaa !8
  call void @llvm.lifetime.start.p0(i64 8, ptr %7) #5
  %12 = load ptr, ptr %4, align 8, !tbaa !3
  %13 = load ptr, ptr %6, align 8, !tbaa !8
  %14 = load i64, ptr %13, align 4
  %15 = lshr i64 %14, 32
  %16 = and i64 %15, 65535
  %17 = trunc i64 %16 to i32
  %18 = load ptr, ptr %6, align 8, !tbaa !8
  %19 = load i64, ptr %18, align 4
  %20 = lshr i64 %19, 48
  %21 = trunc i64 %20 to i32
  %22 = load ptr, ptr %6, align 8, !tbaa !8
  %23 = load i64, ptr %22, align 4
  %24 = lshr i64 %23, 8
  %25 = and i64 %24, 255
  %26 = trunc i64 %25 to i32
  %27 = load ptr, ptr %6, align 8, !tbaa !8
  %28 = getelementptr inbounds nuw %struct.lv_image_header_t, ptr %27, i32 0, i32 1
  %29 = load i32, ptr %28, align 4
  %30 = and i32 %29, 65535
  %31 = call ptr @lv_draw_buf_create_ex(ptr noundef %12, i32 noundef %17, i32 noundef %21, i32 noundef %26, i32 noundef %30)
  store ptr %31, ptr %7, align 8, !tbaa !22
  %32 = load ptr, ptr %7, align 8, !tbaa !22
  %33 = icmp eq ptr %32, null
  br i1 %33, label %34, label %35

34:                                               ; preds = %2
  store ptr null, ptr %3, align 8
  store i32 1, ptr %8, align 4
  br label %90

35:                                               ; preds = %2
  %36 = load ptr, ptr %5, align 8, !tbaa !22
  %37 = getelementptr inbounds nuw %struct._lv_draw_buf_t, ptr %36, i32 0, i32 0
  %38 = load i64, ptr %37, align 8
  %39 = lshr i64 %38, 16
  %40 = and i64 %39, 65535
  %41 = trunc i64 %40 to i32
  %42 = load ptr, ptr %7, align 8, !tbaa !22
  %43 = getelementptr inbounds nuw %struct._lv_draw_buf_t, ptr %42, i32 0, i32 0
  %44 = zext i32 %41 to i64
  %45 = load i64, ptr %43, align 8
  %46 = and i64 %44, 65535
  %47 = shl i64 %46, 16
  %48 = and i64 %45, -4294901761
  %49 = or i64 %48, %47
  store i64 %49, ptr %43, align 8
  %50 = load ptr, ptr %7, align 8, !tbaa !22
  %51 = getelementptr inbounds nuw %struct._lv_draw_buf_t, ptr %50, i32 0, i32 0
  %52 = load i64, ptr %51, align 8
  %53 = lshr i64 %52, 16
  %54 = and i64 %53, 65535
  %55 = trunc i64 %54 to i32
  %56 = or i32 %55, 48
  %57 = zext i32 %56 to i64
  %58 = load i64, ptr %51, align 8
  %59 = and i64 %57, 65535
  %60 = shl i64 %59, 16
  %61 = and i64 %58, -4294901761
  %62 = or i64 %61, %60
  store i64 %62, ptr %51, align 8
  call void @llvm.lifetime.start.p0(i64 4, ptr %9) #5
  %63 = load ptr, ptr %5, align 8, !tbaa !22
  %64 = getelementptr inbounds nuw %struct._lv_draw_buf_t, ptr %63, i32 0, i32 1
  %65 = load i32, ptr %64, align 4, !tbaa !38
  %66 = load ptr, ptr %7, align 8, !tbaa !22
  %67 = getelementptr inbounds nuw %struct._lv_draw_buf_t, ptr %66, i32 0, i32 1
  %68 = load i32, ptr %67, align 4, !tbaa !38
  %69 = icmp ult i32 %65, %68
  br i1 %69, label %70, label %74

70:                                               ; preds = %35
  %71 = load ptr, ptr %5, align 8, !tbaa !22
  %72 = getelementptr inbounds nuw %struct._lv_draw_buf_t, ptr %71, i32 0, i32 1
  %73 = load i32, ptr %72, align 4, !tbaa !38
  br label %78

74:                                               ; preds = %35
  %75 = load ptr, ptr %7, align 8, !tbaa !22
  %76 = getelementptr inbounds nuw %struct._lv_draw_buf_t, ptr %75, i32 0, i32 1
  %77 = load i32, ptr %76, align 4, !tbaa !38
  br label %78

78:                                               ; preds = %74, %70
  %79 = phi i32 [ %73, %70 ], [ %77, %74 ]
  store i32 %79, ptr %9, align 4, !tbaa !18
  %80 = load ptr, ptr %7, align 8, !tbaa !22
  %81 = getelementptr inbounds nuw %struct._lv_draw_buf_t, ptr %80, i32 0, i32 2
  %82 = load ptr, ptr %81, align 8, !tbaa !35
  %83 = load ptr, ptr %5, align 8, !tbaa !22
  %84 = getelementptr inbounds nuw %struct._lv_draw_buf_t, ptr %83, i32 0, i32 2
  %85 = load ptr, ptr %84, align 8, !tbaa !35
  %86 = load i32, ptr %9, align 4, !tbaa !18
  %87 = zext i32 %86 to i64
  %88 = call ptr @lv_memcpy(ptr noundef %82, ptr noundef %85, i64 noundef %87)
  %89 = load ptr, ptr %7, align 8, !tbaa !22
  store ptr %89, ptr %3, align 8
  store i32 1, ptr %8, align 4
  call void @llvm.lifetime.end.p0(i64 4, ptr %9) #5
  br label %90

90:                                               ; preds = %78, %34
  call void @llvm.lifetime.end.p0(i64 8, ptr %7) #5
  call void @llvm.lifetime.end.p0(i64 8, ptr %6) #5
  %91 = load ptr, ptr %3, align 8
  ret ptr %91
}

; Function Attrs: nounwind uwtable
define ptr @lv_draw_buf_dup(ptr noundef %0) #0 {
  %2 = alloca ptr, align 8
  store ptr %0, ptr %2, align 8, !tbaa !22
  %3 = load ptr, ptr %2, align 8, !tbaa !22
  %4 = call ptr @lv_draw_buf_dup_ex(ptr noundef getelementptr inbounds nuw (%struct._lv_global_t, ptr @lv_global, i32 0, i32 25), ptr noundef %3)
  ret ptr %4
}