; Function Attrs: nounwind uwtable
define ptr @lv_draw_buf_dup(ptr noundef readonly captures(none) %0) local_unnamed_addr #0 {
  %2 = load i64, ptr %0, align 4
  %3 = lshr i64 %2, 32
  %4 = trunc nuw i64 %3 to i32
  %5 = and i32 %4, 65535
  %6 = lshr i64 %2, 48
  %7 = trunc nuw nsw i64 %6 to i32
  %8 = trunc i64 %2 to i32
  %9 = lshr i32 %8, 8
  %10 = and i32 %9, 255
  %11 = getelementptr inbounds nuw i8, ptr %0, i64 8
  %12 = load i32, ptr %11, align 4
  %13 = and i32 %12, 65535
  %14 = tail call ptr @lv_draw_buf_create_ex(ptr noundef nonnull getelementptr inbounds nuw (i8, ptr @lv_global, i64 352), i32 noundef %5, i32 noundef %7, i32 noundef %10, i32 noundef %13)
  %15 = icmp eq ptr %14, null
  br i1 %15, label %lv_draw_buf_dup_ex.exit, label %16

16:                                               ; preds = %1
  %17 = load i64, ptr %0, align 8
  %18 = load i64, ptr %14, align 8
  %19 = and i64 %18, -4294901761
  %20 = and i64 %17, 4291756032
  %21 = or disjoint i64 %20, %19
  %22 = or disjoint i64 %21, 3145728
  store i64 %22, ptr %14, align 8
  %23 = getelementptr inbounds nuw i8, ptr %0, i64 12
  %24 = load i32, ptr %23, align 4, !tbaa !29
  %25 = getelementptr inbounds nuw i8, ptr %14, i64 12
  %26 = load i32, ptr %25, align 4, !tbaa !29
  %..i = tail call i32 @llvm.umin.i32(i32 %24, i32 %26)
  %27 = getelementptr inbounds nuw i8, ptr %14, i64 16
  %28 = load ptr, ptr %27, align 8, !tbaa !19
  %29 = getelementptr inbounds nuw i8, ptr %0, i64 16
  %30 = load ptr, ptr %29, align 8, !tbaa !19
  %31 = zext i32 %..i to i64
  %32 = tail call ptr @lv_memcpy(ptr noundef %28, ptr noundef %30, i64 noundef %31) #9
  br label %lv_draw_buf_dup_ex.exit

lv_draw_buf_dup_ex.exit:                          ; preds = %1, %16
  ret ptr %14
}